target datalayout = "e-m:e-p270:32:32-p271:32:32-p272:64:64-i64:64-i128:128-f80:128-n8:16:32:64-S128"
target triple = "x86_64-pc-linux-gnu"

%struct.APEContext = type { ptr, ptr, %struct.BswapDSPContext, %struct.LLAudDSPContext, i32, i32, i32, i32, i32, i32, i32, i32, i32, i32, %struct.APEPredictor, %struct.APEPredictor64, ptr, i32, [2 x ptr], ptr, i32, [2 x ptr], i32, [3 x ptr], %struct.APERangecoder, %struct.APERice, %struct.APERice, [3 x [2 x %struct.APEFilter]], %struct.GetBitContext, ptr, ptr, i32, ptr, i32, i32, ptr, ptr, ptr, ptr }
%struct.BswapDSPContext = type { ptr, ptr }
%struct.LLAudDSPContext = type { ptr, ptr }
%struct.APEPredictor = type { ptr, [2 x i32], [2 x i32], [2 x i32], [2 x [4 x i32]], [2 x [5 x i32]], [562 x i32], i32 }
%struct.APEPredictor64 = type { ptr, [2 x i64], [2 x i64], [2 x i64], [2 x [4 x i64]], [2 x [5 x i64]], [562 x i64] }
%struct.APERangecoder = type { i32, i32, i32, i32 }
%struct.APERice = type { i32, i32 }
%struct.APEFilter = type { ptr, ptr, ptr, ptr, i32 }
%struct.GetBitContext = type { ptr, ptr, i32, i32, i32 }

; Function Attrs: inlinehint nounwind uwtable
define internal i32 @APESIGN(i32 noundef %0) #5 {
  %2 = alloca i32, align 4
  store i32 %0, ptr %2, align 4, !tbaa !32
  %3 = load i32, ptr %2, align 4, !tbaa !32
  %4 = icmp slt i32 %3, 0
  %5 = zext i1 %4 to i32
  %6 = load i32, ptr %2, align 4, !tbaa !32
  %7 = icmp sgt i32 %6, 0
  %8 = zext i1 %7 to i32
  %9 = sub nsw i32 %5, %8
  ret i32 %9
}

; Function Attrs: alwaysinline nounwind uwtable
define internal i32 @predictor_update_3930(ptr noundef %0, i32 noundef %1, i32 noundef %2, i32 noundef %3) #7 {
  %5 = alloca ptr, align 8
  %6 = alloca i32, align 4
  %7 = alloca i32, align 4
  %8 = alloca i32, align 4
  %9 = alloca i32, align 4
  %10 = alloca i32, align 4
  %11 = alloca i32, align 4
  %12 = alloca i32, align 4
  %13 = alloca i32, align 4
  %14 = alloca i32, align 4
  store ptr %0, ptr %5, align 8, !tbaa !119
  store i32 %1, ptr %6, align 4, !tbaa !32
  store i32 %2, ptr %7, align 4, !tbaa !32
  store i32 %3, ptr %8, align 4, !tbaa !32
  call void @llvm.lifetime.start.p0(i64 4, ptr %9) #11
  call void @llvm.lifetime.start.p0(i64 4, ptr %10) #11
  call void @llvm.lifetime.start.p0(i64 4, ptr %11) #11
  call void @llvm.lifetime.start.p0(i64 4, ptr %12) #11
  call void @llvm.lifetime.start.p0(i64 4, ptr %13) #11
  call void @llvm.lifetime.start.p0(i64 4, ptr %14) #11
  %15 = load ptr, ptr %5, align 8, !tbaa !119
  %16 = getelementptr inbounds nuw %struct.APEPredictor, ptr %15, i32 0, i32 1
  %17 = load i32, ptr %7, align 4, !tbaa !32
  %18 = sext i32 %17 to i64
  %19 = getelementptr inbounds [2 x i32], ptr %16, i64 0, i64 %18
  %20 = load i32, ptr %19, align 4, !tbaa !32
  %21 = load ptr, ptr %5, align 8, !tbaa !119
  %22 = getelementptr inbounds nuw %struct.APEPredictor, ptr %21, i32 0, i32 0
  %23 = load ptr, ptr %22, align 8, !tbaa !121
  %24 = load i32, ptr %8, align 4, !tbaa !32
  %25 = sext i32 %24 to i64
  %26 = getelementptr inbounds i32, ptr %23, i64 %25
  store i32 %20, ptr %26, align 4, !tbaa !32
  %27 = load ptr, ptr %5, align 8, !tbaa !119
  %28 = getelementptr inbounds nuw %struct.APEPredictor, ptr %27, i32 0, i32 0
  %29 = load ptr, ptr %28, align 8, !tbaa !121
  %30 = load i32, ptr %8, align 4, !tbaa !32
  %31 = sext i32 %30 to i64
  %32 = getelementptr inbounds i32, ptr %29, i64 %31
  %33 = load i32, ptr %32, align 4, !tbaa !32
  store i32 %33, ptr %11, align 4, !tbaa !32
  %34 = load ptr, ptr %5, align 8, !tbaa !119
  %35 = getelementptr inbounds nuw %struct.APEPredictor, ptr %34, i32 0, i32 0
  %36 = load ptr, ptr %35, align 8, !tbaa !121
  %37 = load i32, ptr %8, align 4, !tbaa !32
  %38 = sext i32 %37 to i64
  %39 = getelementptr inbounds i32, ptr %36, i64 %38
  %40 = load i32, ptr %39, align 4, !tbaa !32
  %41 = load ptr, ptr %5, align 8, !tbaa !119
  %42 = getelementptr inbounds nuw %struct.APEPredictor, ptr %41, i32 0, i32 0
  %43 = load ptr, ptr %42, align 8, !tbaa !121
  %44 = load i32, ptr %8, align 4, !tbaa !32
  %45 = sub nsw i32 %44, 1
  %46 = sext i32 %45 to i64
  %47 = getelementptr inbounds i32, ptr %43, i64 %46
  %48 = load i32, ptr %47, align 4, !tbaa !32
  %49 = sub i32 %40, %48
  store i32 %49, ptr %12, align 4, !tbaa !32
  %50 = load ptr, ptr %5, align 8, !tbaa !119
  %51 = getelementptr inbounds nuw %struct.APEPredictor, ptr %50, i32 0, i32 0
  %52 = load ptr, ptr %51, align 8, !tbaa !121
  %53 = load i32, ptr %8, align 4, !tbaa !32
  %54 = sub nsw i32 %53, 1
  %55 = sext i32 %54 to i64
  %56 = getelementptr inbounds i32, ptr %52, i64 %55
  %57 = load i32, ptr %56, align 4, !tbaa !32
  %58 = load ptr, ptr %5, align 8, !tbaa !119
  %59 = getelementptr inbounds nuw %struct.APEPredictor, ptr %58, i32 0, i32 0
  %60 = load ptr, ptr %59, align 8, !tbaa !121
  %61 = load i32, ptr %8, align 4, !tbaa !32
  %62 = sub nsw i32 %61, 2
  %63 = sext i32 %62 to i64
  %64 = getelementptr inbounds i32, ptr %60, i64 %63
  %65 = load i32, ptr %64, align 4, !tbaa !32
  %66 = sub i32 %57, %65
  store i32 %66, ptr %13, align 4, !tbaa !32
  %67 = load ptr, ptr %5, align 8, !tbaa !119
  %68 = getelementptr inbounds nuw %struct.APEPredictor, ptr %67, i32 0, i32 0
  %69 = load ptr, ptr %68, align 8, !tbaa !121
  %70 = load i32, ptr %8, align 4, !tbaa !32
  %71 = sub nsw i32 %70, 2
  %72 = sext i32 %71 to i64
  %73 = getelementptr inbounds i32, ptr %69, i64 %72
  %74 = load i32, ptr %73, align 4, !tbaa !32
  %75 = load ptr, ptr %5, align 8, !tbaa !119
  %76 = getelementptr inbounds nuw %struct.APEPredictor, ptr %75, i32 0, i32 0
  %77 = load ptr, ptr %76, align 8, !tbaa !121
  %78 = load i32, ptr %8, align 4, !tbaa !32
  %79 = sub nsw i32 %78, 3
  %80 = sext i32 %79 to i64
  %81 = getelementptr inbounds i32, ptr %77, i64 %80
  %82 = load i32, ptr %81, align 4, !tbaa !32
  %83 = sub i32 %74, %82
  store i32 %83, ptr %14, align 4, !tbaa !32
  %84 = load i32, ptr %11, align 4, !tbaa !32
  %85 = load ptr, ptr %5, align 8, !tbaa !119
  %86 = getelementptr inbounds nuw %struct.APEPredictor, ptr %85, i32 0, i32 4
  %87 = load i32, ptr %7, align 4, !tbaa !32
  %88 = sext i32 %87 to i64
  %89 = getelementptr inbounds [2 x [4 x i32]], ptr %86, i64 0, i64 %88
  %90 = getelementptr inbounds [4 x i32], ptr %89, i64 0, i64 0
  %91 = load i32, ptr %90, align 8, !tbaa !32
  %92 = mul i32 %84, %91
  %93 = load i32, ptr %12, align 4, !tbaa !32
  %94 = load ptr, ptr %5, align 8, !tbaa !119
  %95 = getelementptr inbounds nuw %struct.APEPredictor, ptr %94, i32 0, i32 4
  %96 = load i32, ptr %7, align 4, !tbaa !32
  %97 = sext i32 %96 to i64
  %98 = getelementptr inbounds [2 x [4 x i32]], ptr %95, i64 0, i64 %97
  %99 = getelementptr inbounds [4 x i32], ptr %98, i64 0, i64 1
  %100 = load i32, ptr %99, align 4, !tbaa !32
  %101 = mul i32 %93, %100
  %102 = add i32 %92, %101
  %103 = load i32, ptr %13, align 4, !tbaa !32
  %104 = load ptr, ptr %5, align 8, !tbaa !119
  %105 = getelementptr inbounds nuw %struct.APEPredictor, ptr %104, i32 0, i32 4
  %106 = load i32, ptr %7, align 4, !tbaa !32
  %107 = sext i32 %106 to i64
  %108 = getelementptr inbounds [2 x [4 x i32]], ptr %105, i64 0, i64 %107
  %109 = getelementptr inbounds [4 x i32], ptr %108, i64 0, i64 2
  %110 = load i32, ptr %109, align 8, !tbaa !32
  %111 = mul i32 %103, %110
  %112 = add i32 %102, %111
  %113 = load i32, ptr %14, align 4, !tbaa !32
  %114 = load ptr, ptr %5, align 8, !tbaa !119
  %115 = getelementptr inbounds nuw %struct.APEPredictor, ptr %114, i32 0, i32 4
  %116 = load i32, ptr %7, align 4, !tbaa !32
  %117 = sext i32 %116 to i64
  %118 = getelementptr inbounds [2 x [4 x i32]], ptr %115, i64 0, i64 %117
  %119 = getelementptr inbounds [4 x i32], ptr %118, i64 0, i64 3
  %120 = load i32, ptr %119, align 4, !tbaa !32
  %121 = mul i32 %113, %120
  %122 = add i32 %112, %121
  store i32 %122, ptr %9, align 4, !tbaa !32
  %123 = load i32, ptr %6, align 4, !tbaa !32
  %124 = load i32, ptr %9, align 4, !tbaa !32
  %125 = ashr i32 %124, 9
  %126 = add nsw i32 %123, %125
  %127 = load ptr, ptr %5, align 8, !tbaa !119
  %128 = getelementptr inbounds nuw %struct.APEPredictor, ptr %127, i32 0, i32 1
  %129 = load i32, ptr %7, align 4, !tbaa !32
  %130 = sext i32 %129 to i64
  %131 = getelementptr inbounds [2 x i32], ptr %128, i64 0, i64 %130
  store i32 %126, ptr %131, align 4, !tbaa !32
  %132 = load ptr, ptr %5, align 8, !tbaa !119
  %133 = getelementptr inbounds nuw %struct.APEPredictor, ptr %132, i32 0, i32 1
  %134 = load i32, ptr %7, align 4, !tbaa !32
  %135 = sext i32 %134 to i64
  %136 = getelementptr inbounds [2 x i32], ptr %133, i64 0, i64 %135
  %137 = load i32, ptr %136, align 4, !tbaa !32
  %138 = load ptr, ptr %5, align 8, !tbaa !119
  %139 = getelementptr inbounds nuw %struct.APEPredictor, ptr %138, i32 0, i32 2
  %140 = load i32, ptr %7, align 4, !tbaa !32
  %141 = sext i32 %140 to i64
  %142 = getelementptr inbounds [2 x i32], ptr %139, i64 0, i64 %141
  %143 = load i32, ptr %142, align 4, !tbaa !32
  %144 = mul i32 %143, 31
  %145 = ashr i32 %144, 5
  %146 = add nsw i32 %137, %145
  %147 = load ptr, ptr %5, align 8, !tbaa !119
  %148 = getelementptr inbounds nuw %struct.APEPredictor, ptr %147, i32 0, i32 2
  %149 = load i32, ptr %7, align 4, !tbaa !32
  %150 = sext i32 %149 to i64
  %151 = getelementptr inbounds [2 x i32], ptr %148, i64 0, i64 %150
  store i32 %146, ptr %151, align 4, !tbaa !32
  %152 = load i32, ptr %6, align 4, !tbaa !32
  %153 = call i32 @APESIGN(i32 noundef %152)
  store i32 %153, ptr %10, align 4, !tbaa !32
  %154 = load i32, ptr %11, align 4, !tbaa !32
  %155 = icmp slt i32 %154, 0
  %156 = zext i1 %155 to i32
  %157 = mul nsw i32 %156, 2
  %158 = sub nsw i32 %157, 1
  %159 = load i32, ptr %10, align 4, !tbaa !32
  %160 = mul nsw i32 %158, %159
  %161 = load ptr, ptr %5, align 8, !tbaa !119
  %162 = getelementptr inbounds nuw %struct.APEPredictor, ptr %161, i32 0, i32 4
  %163 = load i32, ptr %7, align 4, !tbaa !32
  %164 = sext i32 %163 to i64
  %165 = getelementptr inbounds [2 x [4 x i32]], ptr %162, i64 0, i64 %164
  %166 = getelementptr inbounds [4 x i32], ptr %165, i64 0, i64 0
  %167 = load i32, ptr %166, align 8, !tbaa !32
  %168 = add i32 %167, %160
  store i32 %168, ptr %166, align 8, !tbaa !32
  %169 = load i32, ptr %12, align 4, !tbaa !32
  %170 = icmp slt i32 %169, 0
  %171 = zext i1 %170 to i32
  %172 = mul nsw i32 %171, 2
  %173 = sub nsw i32 %172, 1
  %174 = load i32, ptr %10, align 4, !tbaa !32
  %175 = mul nsw i32 %173, %174
  %176 = load ptr, ptr %5, align 8, !tbaa !119
  %177 = getelementptr inbounds nuw %struct.APEPredictor, ptr %176, i32 0, i32 4
  %178 = load i32, ptr %7, align 4, !tbaa !32
  %179 = sext i32 %178 to i64
  %180 = getelementptr inbounds [2 x [4 x i32]], ptr %177, i64 0, i64 %179
  %181 = getelementptr inbounds [4 x i32], ptr %180, i64 0, i64 1
  %182 = load i32, ptr %181, align 4, !tbaa !32
  %183 = add i32 %182, %175
  store i32 %183, ptr %181, align 4, !tbaa !32
  %184 = load i32, ptr %13, align 4, !tbaa !32
  %185 = icmp slt i32 %184, 0
  %186 = zext i1 %185 to i32
  %187 = mul nsw i32 %186, 2
  %188 = sub nsw i32 %187, 1
  %189 = load i32, ptr %10, align 4, !tbaa !32
  %190 = mul nsw i32 %188, %189
  %191 = load ptr, ptr %5, align 8, !tbaa !119
  %192 = getelementptr inbounds nuw %struct.APEPredictor, ptr %191, i32 0, i32 4
  %193 = load i32, ptr %7, align 4, !tbaa !32
  %194 = sext i32 %193 to i64
  %195 = getelementptr inbounds [2 x [4 x i32]], ptr %192, i64 0, i64 %194
  %196 = getelementptr inbounds [4 x i32], ptr %195, i64 0, i64 2
  %197 = load i32, ptr %196, align 8, !tbaa !32
  %198 = add i32 %197, %190
  store i32 %198, ptr %196, align 8, !tbaa !32
  %199 = load i32, ptr %14, align 4, !tbaa !32
  %200 = icmp slt i32 %199, 0
  %201 = zext i1 %200 to i32
  %202 = mul nsw i32 %201, 2
  %203 = sub nsw i32 %202, 1
  %204 = load i32, ptr %10, align 4, !tbaa !32
  %205 = mul nsw i32 %203, %204
  %206 = load ptr, ptr %5, align 8, !tbaa !119
  %207 = getelementptr inbounds nuw %struct.APEPredictor, ptr %206, i32 0, i32 4
  %208 = load i32, ptr %7, align 4, !tbaa !32
  %209 = sext i32 %208 to i64
  %210 = getelementptr inbounds [2 x [4 x i32]], ptr %207, i64 0, i64 %209
  %211 = getelementptr inbounds [4 x i32], ptr %210, i64 0, i64 3
  %212 = load i32, ptr %211, align 4, !tbaa !32
  %213 = add i32 %212, %205
  store i32 %213, ptr %211, align 4, !tbaa !32
  %214 = load ptr, ptr %5, align 8, !tbaa !119
  %215 = getelementptr inbounds nuw %struct.APEPredictor, ptr %214, i32 0, i32 2
  %216 = load i32, ptr %7, align 4, !tbaa !32
  %217 = sext i32 %216 to i64
  %218 = getelementptr inbounds [2 x i32], ptr %215, i64 0, i64 %217
  %219 = load i32, ptr %218, align 4, !tbaa !32
  call void @llvm.lifetime.end.p0(i64 4, ptr %14) #11
  call void @llvm.lifetime.end.p0(i64 4, ptr %13) #11
  call void @llvm.lifetime.end.p0(i64 4, ptr %12) #11
  call void @llvm.lifetime.end.p0(i64 4, ptr %11) #11
  call void @llvm.lifetime.end.p0(i64 4, ptr %10) #11
  call void @llvm.lifetime.end.p0(i64 4, ptr %9) #11
  ret i32 %219
}

; Function Attrs: nounwind uwtable
define internal void @predictor_decode_stereo_3930(ptr noundef %0, i32 noundef %1) #1 {
  %3 = alloca ptr, align 8
  %4 = alloca i32, align 4
  %5 = alloca ptr, align 8
  %6 = alloca ptr, align 8
  %7 = alloca ptr, align 8
  %8 = alloca i32, align 4
  %9 = alloca i32, align 4
  store ptr %0, ptr %3, align 8, !tbaa !29
  store i32 %1, ptr %4, align 4, !tbaa !32
  call void @llvm.lifetime.start.p0(i64 8, ptr %5) #11
  %10 = load ptr, ptr %3, align 8, !tbaa !29
  %11 = getelementptr inbounds nuw %struct.APEContext, ptr %10, i32 0, i32 14
  store ptr %11, ptr %5, align 8, !tbaa !119
  call void @llvm.lifetime.start.p0(i64 8, ptr %6) #11
  %12 = load ptr, ptr %3, align 8, !tbaa !29
  %13 = getelementptr inbounds nuw %struct.APEContext, ptr %12, i32 0, i32 18
  %14 = getelementptr inbounds [2 x ptr], ptr %13, i64 0, i64 0
  %15 = load ptr, ptr %14, align 8, !tbaa !72
  store ptr %15, ptr %6, align 8, !tbaa !72
  call void @llvm.lifetime.start.p0(i64 8, ptr %7) #11
  %16 = load ptr, ptr %3, align 8, !tbaa !29
  %17 = getelementptr inbounds nuw %struct.APEContext, ptr %16, i32 0, i32 18
  %18 = getelementptr inbounds [2 x ptr], ptr %17, i64 0, i64 1
  %19 = load ptr, ptr %18, align 8, !tbaa !72
  store ptr %19, ptr %7, align 8, !tbaa !72
  %20 = load ptr, ptr %3, align 8, !tbaa !29
  %21 = load ptr, ptr %3, align 8, !tbaa !29
  %22 = getelementptr inbounds nuw %struct.APEContext, ptr %21, i32 0, i32 18
  %23 = getelementptr inbounds [2 x ptr], ptr %22, i64 0, i64 0
  %24 = load ptr, ptr %23, align 8, !tbaa !72
  %25 = load ptr, ptr %3, align 8, !tbaa !29
  %26 = getelementptr inbounds nuw %struct.APEContext, ptr %25, i32 0, i32 18
  %27 = getelementptr inbounds [2 x ptr], ptr %26, i64 0, i64 1
  %28 = load ptr, ptr %27, align 8, !tbaa !72
  %29 = load i32, ptr %4, align 4, !tbaa !32
  call void @ape_apply_filters(ptr noundef %20, ptr noundef %24, ptr noundef %28, i32 noundef %29)
  br label %30

30:                                               ; preds = %75, %2
  %31 = load i32, ptr %4, align 4, !tbaa !32
  %32 = add nsw i32 %31, -1
  store i32 %32, ptr %4, align 4, !tbaa !32
  %33 = icmp ne i32 %31, 0
  br i1 %33, label %34, label %76

34:                                               ; preds = %30
  call void @llvm.lifetime.start.p0(i64 4, ptr %8) #11
  %35 = load ptr, ptr %7, align 8, !tbaa !72
  %36 = load i32, ptr %35, align 4, !tbaa !32
  store i32 %36, ptr %8, align 4, !tbaa !32
  call void @llvm.lifetime.start.p0(i64 4, ptr %9) #11
  %37 = load ptr, ptr %6, align 8, !tbaa !72
  %38 = load i32, ptr %37, align 4, !tbaa !32
  store i32 %38, ptr %9, align 4, !tbaa !32
  %39 = load ptr, ptr %5, align 8, !tbaa !119
  %40 = load i32, ptr %8, align 4, !tbaa !32
  %41 = call i32 @predictor_update_3930(ptr noundef %39, i32 noundef %40, i32 noundef 0, i32 noundef 50)
  %42 = load ptr, ptr %6, align 8, !tbaa !72
  store i32 %41, ptr %42, align 4, !tbaa !32
  %43 = load ptr, ptr %6, align 8, !tbaa !72
  %44 = getelementptr inbounds nuw i32, ptr %43, i32 1
  store ptr %44, ptr %6, align 8, !tbaa !72
  %45 = load ptr, ptr %5, align 8, !tbaa !119
  %46 = load i32, ptr %9, align 4, !tbaa !32
  %47 = call i32 @predictor_update_3930(ptr noundef %45, i32 noundef %46, i32 noundef 1, i32 noundef 34)
  %48 = load ptr, ptr %7, align 8, !tbaa !72
  store i32 %47, ptr %48, align 4, !tbaa !32
  %49 = load ptr, ptr %7, align 8, !tbaa !72
  %50 = getelementptr inbounds nuw i32, ptr %49, i32 1
  store ptr %50, ptr %7, align 8, !tbaa !72
  %51 = load ptr, ptr %5, align 8, !tbaa !119
  %52 = getelementptr inbounds nuw %struct.APEPredictor, ptr %51, i32 0, i32 0
  %53 = load ptr, ptr %52, align 8, !tbaa !121
  %54 = getelementptr inbounds nuw i32, ptr %53, i32 1
  store ptr %54, ptr %52, align 8, !tbaa !121
  %55 = load ptr, ptr %5, align 8, !tbaa !119
  %56 = getelementptr inbounds nuw %struct.APEPredictor, ptr %55, i32 0, i32 0
  %57 = load ptr, ptr %56, align 8, !tbaa !121
  %58 = load ptr, ptr %5, align 8, !tbaa !119
  %59 = getelementptr inbounds nuw %struct.APEPredictor, ptr %58, i32 0, i32 6
  %60 = getelementptr inbounds [562 x i32], ptr %59, i64 0, i64 0
  %61 = getelementptr inbounds i32, ptr %60, i64 512
  %62 = icmp eq ptr %57, %61
  br i1 %62, label %63, label %75

63:                                               ; preds = %34
  %64 = load ptr, ptr %5, align 8, !tbaa !119
  %65 = getelementptr inbounds nuw %struct.APEPredictor, ptr %64, i32 0, i32 6
  %66 = getelementptr inbounds [562 x i32], ptr %65, i64 0, i64 0
  %67 = load ptr, ptr %5, align 8, !tbaa !119
  %68 = getelementptr inbounds nuw %struct.APEPredictor, ptr %67, i32 0, i32 0
  %69 = load ptr, ptr %68, align 8, !tbaa !121
  call void @llvm.memmove.p0.p0.i64(ptr align 8 %66, ptr align 4 %69, i64 200, i1 false)
  %70 = load ptr, ptr %5, align 8, !tbaa !119
  %71 = getelementptr inbounds nuw %struct.APEPredictor, ptr %70, i32 0, i32 6
  %72 = getelementptr inbounds [562 x i32], ptr %71, i64 0, i64 0
  %73 = load ptr, ptr %5, align 8, !tbaa !119
  %74 = getelementptr inbounds nuw %struct.APEPredictor, ptr %73, i32 0, i32 0
  store ptr %72, ptr %74, align 8, !tbaa !121
  br label %75

75:                                               ; preds = %63, %34
  call void @llvm.lifetime.end.p0(i64 4, ptr %9) #11
  call void @llvm.lifetime.end.p0(i64 4, ptr %8) #11
  br label %30, !llvm.loop !126

76:                                               ; preds = %30
  call void @llvm.lifetime.end.p0(i64 8, ptr %7) #11
  call void @llvm.lifetime.end.p0(i64 8, ptr %6) #11
  call void @llvm.lifetime.end.p0(i64 8, ptr %5) #11
  ret void
}