; Function Attrs: nounwind uwtable
define internal void @predictor_decode_stereo_3930(ptr noundef %0, i32 noundef %1) #1 {
  %3 = getelementptr inbounds nuw i8, ptr %0, i64 88
  %4 = getelementptr inbounds nuw i8, ptr %0, i64 7160
  %5 = load ptr, ptr %4, align 8, !tbaa !85
  %6 = getelementptr inbounds nuw i8, ptr %0, i64 7168
  %7 = load ptr, ptr %6, align 8, !tbaa !85
  tail call fastcc void @ape_apply_filters(ptr noundef %0, ptr noundef %5, ptr noundef %7, i32 noundef %1)
  %.not29 = icmp eq i32 %1, 0
  br i1 %.not29, label %._crit_edge, label %.lr.ph

.lr.ph:                                           ; preds = %2
  %8 = getelementptr inbounds nuw i8, ptr %0, i64 96
  %9 = getelementptr inbounds nuw i8, ptr %0, i64 120
  %10 = getelementptr inbounds nuw i8, ptr %0, i64 124
  %11 = getelementptr inbounds nuw i8, ptr %0, i64 128
  %12 = getelementptr inbounds nuw i8, ptr %0, i64 132
  %13 = getelementptr inbounds nuw i8, ptr %0, i64 104
  %14 = getelementptr inbounds nuw i8, ptr %0, i64 100
  %15 = getelementptr inbounds nuw i8, ptr %0, i64 136
  %16 = getelementptr inbounds nuw i8, ptr %0, i64 140
  %17 = getelementptr inbounds nuw i8, ptr %0, i64 144
  %18 = getelementptr inbounds nuw i8, ptr %0, i64 148
  %19 = getelementptr inbounds nuw i8, ptr %0, i64 108
  %20 = getelementptr inbounds nuw i8, ptr %0, i64 2240
  %21 = getelementptr inbounds nuw i8, ptr %0, i64 192
  %.promoted = load ptr, ptr %3, align 8, !tbaa !123
  br label %22

22:                                               ; preds = %.lr.ph, %132
  %23 = phi ptr [ %.promoted, %.lr.ph ], [ %133, %132 ]
  %.in = phi i32 [ %1, %.lr.ph ], [ %24, %132 ]
  %.02431 = phi ptr [ %5, %.lr.ph ], [ %77, %132 ]
  %.02530 = phi ptr [ %7, %.lr.ph ], [ %128, %132 ]
  %24 = add nsw i32 %.in, -1
  %25 = load i32, ptr %.02530, align 4, !tbaa !61
  %26 = load i32, ptr %.02431, align 4, !tbaa !61
  %27 = load i32, ptr %8, align 4, !tbaa !61
  %28 = getelementptr inbounds nuw i8, ptr %23, i64 200
  store i32 %27, ptr %28, align 4, !tbaa !61
  %29 = getelementptr i8, ptr %23, i64 196
  %30 = load i32, ptr %29, align 4, !tbaa !61
  %31 = sub i32 %27, %30
  %32 = getelementptr i8, ptr %23, i64 192
  %33 = load i32, ptr %32, align 4, !tbaa !61
  %34 = sub i32 %30, %33
  %35 = getelementptr i8, ptr %23, i64 188
  %36 = load i32, ptr %35, align 4, !tbaa !61
  %37 = sub i32 %33, %36
  %38 = load i32, ptr %9, align 8, !tbaa !61
  %39 = mul i32 %38, %27
  %40 = load i32, ptr %10, align 4, !tbaa !61
  %41 = mul i32 %40, %31
  %42 = add i32 %41, %39
  %43 = load i32, ptr %11, align 8, !tbaa !61
  %44 = mul i32 %43, %34
  %45 = add i32 %42, %44
  %46 = load i32, ptr %12, align 4, !tbaa !61
  %47 = mul i32 %46, %37
  %48 = add i32 %45, %47
  %49 = ashr i32 %48, 9
  %50 = add nsw i32 %49, %25
  store i32 %50, ptr %8, align 4, !tbaa !61
  %51 = load i32, ptr %13, align 4, !tbaa !61
  %52 = mul i32 %51, 31
  %53 = ashr i32 %52, 5
  %54 = add nsw i32 %50, %53
  store i32 %54, ptr %13, align 4, !tbaa !61
  %.lobit.i = lshr i32 %25, 31
  %55 = icmp sgt i32 %25, 0
  %.neg.i = sext i1 %55 to i32
  %56 = add nsw i32 %.lobit.i, %.neg.i
  %57 = lshr i32 %27, 30
  %58 = and i32 %57, 2
  %59 = add nsw i32 %58, -1
  %60 = mul nsw i32 %59, %56
  %61 = add i32 %38, %60
  store i32 %61, ptr %9, align 8, !tbaa !61
  %62 = lshr i32 %31, 30
  %63 = and i32 %62, 2
  %64 = add nsw i32 %63, -1
  %65 = mul nsw i32 %64, %56
  %66 = add i32 %65, %40
  store i32 %66, ptr %10, align 4, !tbaa !61
  %67 = lshr i32 %34, 30
  %68 = and i32 %67, 2
  %69 = add nsw i32 %68, -1
  %70 = mul nsw i32 %69, %56
  %71 = add i32 %70, %43
  store i32 %71, ptr %11, align 8, !tbaa !61
  %72 = lshr i32 %37, 30
  %73 = and i32 %72, 2
  %74 = add nsw i32 %73, -1
  %75 = mul nsw i32 %74, %56
  %76 = add i32 %75, %46
  store i32 %76, ptr %12, align 4, !tbaa !61
  store i32 %54, ptr %.02431, align 4, !tbaa !61
  %77 = getelementptr inbounds nuw i8, ptr %.02431, i64 4
  %78 = load i32, ptr %14, align 4, !tbaa !61
  %79 = getelementptr inbounds nuw i8, ptr %23, i64 136
  store i32 %78, ptr %79, align 4, !tbaa !61
  %80 = getelementptr i8, ptr %23, i64 132
  %81 = load i32, ptr %80, align 4, !tbaa !61
  %82 = sub i32 %78, %81
  %83 = getelementptr i8, ptr %23, i64 128
  %84 = load i32, ptr %83, align 4, !tbaa !61
  %85 = sub i32 %81, %84
  %86 = getelementptr i8, ptr %23, i64 124
  %87 = load i32, ptr %86, align 4, !tbaa !61
  %88 = sub i32 %84, %87
  %89 = load i32, ptr %15, align 8, !tbaa !61
  %90 = mul i32 %89, %78
  %91 = load i32, ptr %16, align 4, !tbaa !61
  %92 = mul i32 %91, %82
  %93 = add i32 %92, %90
  %94 = load i32, ptr %17, align 8, !tbaa !61
  %95 = mul i32 %94, %85
  %96 = add i32 %93, %95
  %97 = load i32, ptr %18, align 4, !tbaa !61
  %98 = mul i32 %97, %88
  %99 = add i32 %96, %98
  %100 = ashr i32 %99, 9
  %101 = add nsw i32 %100, %26
  store i32 %101, ptr %14, align 4, !tbaa !61
  %102 = load i32, ptr %19, align 4, !tbaa !61
  %103 = mul i32 %102, 31
  %104 = ashr i32 %103, 5
  %105 = add nsw i32 %101, %104
  store i32 %105, ptr %19, align 4, !tbaa !61
  %.lobit.i27 = lshr i32 %26, 31
  %106 = icmp sgt i32 %26, 0
  %.neg.i28 = sext i1 %106 to i32
  %107 = add nsw i32 %.lobit.i27, %.neg.i28
  %108 = lshr i32 %78, 30
  %109 = and i32 %108, 2
  %110 = add nsw i32 %109, -1
  %111 = mul nsw i32 %110, %107
  %112 = add i32 %89, %111
  store i32 %112, ptr %15, align 8, !tbaa !61
  %113 = lshr i32 %82, 30
  %114 = and i32 %113, 2
  %115 = add nsw i32 %114, -1
  %116 = mul nsw i32 %115, %107
  %117 = add i32 %116, %91
  store i32 %117, ptr %16, align 4, !tbaa !61
  %118 = lshr i32 %85, 30
  %119 = and i32 %118, 2
  %120 = add nsw i32 %119, -1
  %121 = mul nsw i32 %120, %107
  %122 = add i32 %121, %94
  store i32 %122, ptr %17, align 8, !tbaa !61
  %123 = lshr i32 %88, 30
  %124 = and i32 %123, 2
  %125 = add nsw i32 %124, -1
  %126 = mul nsw i32 %125, %107
  %127 = add i32 %126, %97
  store i32 %127, ptr %18, align 4, !tbaa !61
  store i32 %105, ptr %.02530, align 4, !tbaa !61
  %128 = getelementptr inbounds nuw i8, ptr %.02530, i64 4
  %129 = getelementptr inbounds nuw i8, ptr %23, i64 4
  store ptr %129, ptr %3, align 8, !tbaa !123
  %130 = icmp eq ptr %129, %20
  br i1 %130, label %131, label %132

131:                                              ; preds = %22
  tail call void @llvm.memmove.p0.p0.i64(ptr noundef nonnull align 8 dereferenceable(200) %21, ptr noundef nonnull align 4 dereferenceable(200) %129, i64 200, i1 false)
  store ptr %21, ptr %3, align 8, !tbaa !123
  br label %132

132:                                              ; preds = %131, %22
  %133 = phi ptr [ %21, %131 ], [ %129, %22 ]
  %.not = icmp eq i32 %24, 0
  br i1 %.not, label %._crit_edge, label %22, !llvm.loop !129

._crit_edge:                                      ; preds = %132, %2
  ret void
}